; Function Attrs: mustprogress nofree norecurse nosync nounwind willreturn memory(write, argmem: readwrite, inaccessiblemem: none) uwtable
define internal void @start_pass_upsample(ptr noundef readonly captures(none) %0) #1 {
  %2 = getelementptr inbounds nuw i8, ptr %0, i64 608
  %3 = load ptr, ptr %2, align 8, !tbaa !43
  %4 = getelementptr inbounds nuw i8, ptr %0, i64 412
  %5 = load i32, ptr %4, align 4, !tbaa !59
  %6 = getelementptr inbounds nuw i8, ptr %3, i64 200
  store i32 %5, ptr %6, align 8, !tbaa !68
  %7 = getelementptr inbounds nuw i8, ptr %0, i64 140
  %8 = load i32, ptr %7, align 4, !tbaa !69
  %9 = getelementptr inbounds nuw i8, ptr %3, i64 204
  store i32 %8, ptr %9, align 4, !tbaa !70
  ret void
}